; Function Attrs: nounwind uwtable
define ptr @Scl_LibertyReadCellArea(ptr noundef readonly captures(none) %0, ptr noundef readonly captures(none) %1) local_unnamed_addr #4 {
  %3 = getelementptr inbounds nuw i8, ptr %1, i64 36
  %4 = load i32, ptr %3, align 4
  %5 = icmp slt i32 %4, 0
  br i1 %5, label %.loopexit, label %Scl_LibertyItem.exit

Scl_LibertyItem.exit:                             ; preds = %2
  %6 = getelementptr inbounds nuw i8, ptr %0, i64 40
  %7 = load ptr, ptr %6, align 8
  %.not16 = icmp eq ptr %7, null
  br i1 %.not16, label %.loopexit, label %.lr.ph

.lr.ph:                                           ; preds = %Scl_LibertyItem.exit
  %8 = zext nneg i32 %4 to i64
  %9 = getelementptr inbounds nuw %struct.Scl_Item_t_, ptr %7, i64 %8
  %10 = getelementptr i8, ptr %0, i64 8
  %.val = load ptr, ptr %10, align 8
  %11 = getelementptr inbounds nuw i8, ptr %0, i64 40
  br label %12

12:                                               ; preds = %.lr.ph, %Scl_LibertyItem.exit12
  %.017 = phi ptr [ %9, %.lr.ph ], [ %29, %Scl_LibertyItem.exit12 ]
  %13 = getelementptr inbounds nuw i8, ptr %.017, i64 8
  %14 = load i64, ptr %13, align 4
  %.sroa.0.0.extract.trunc.i = trunc i64 %14 to i32
  %.sroa.4.0.extract.shift.i = lshr i64 %14, 32
  %.sroa.4.0.extract.trunc.i = trunc nuw i64 %.sroa.4.0.extract.shift.i to i32
  %sext.i = shl i64 %14, 32
  %15 = ashr exact i64 %sext.i, 32
  %16 = getelementptr inbounds i8, ptr %.val, i64 %15
  %17 = sub nsw i32 %.sroa.4.0.extract.trunc.i, %.sroa.0.0.extract.trunc.i
  %18 = sext i32 %17 to i64
  %19 = tail call i32 @strncmp(ptr noundef readonly %16, ptr noundef nonnull @.str.24, i64 noundef %18) #30
  %.not.i = icmp eq i32 %19, 0
  %.not14 = icmp eq i32 %17, 4
  %or.cond = and i1 %.not.i, %.not14
  br i1 %or.cond, label %20, label %Scl_LibertyCompare.exit.thread

20:                                               ; preds = %12
  %21 = getelementptr inbounds nuw i8, ptr %.017, i64 16
  %22 = load i64, ptr %21, align 4
  %23 = tail call ptr @Scl_LibertyReadString(ptr noundef nonnull %0, i64 %22)
  br label %.loopexit

Scl_LibertyCompare.exit.thread:                   ; preds = %12
  %24 = getelementptr inbounds nuw i8, ptr %.017, i64 32
  %25 = load i32, ptr %24, align 4
  %26 = icmp slt i32 %25, 0
  br i1 %26, label %.loopexit, label %Scl_LibertyItem.exit12

Scl_LibertyItem.exit12:                           ; preds = %Scl_LibertyCompare.exit.thread
  %27 = load ptr, ptr %11, align 8
  %28 = zext nneg i32 %25 to i64
  %29 = getelementptr inbounds nuw %struct.Scl_Item_t_, ptr %27, i64 %28
  %.not = icmp eq ptr %27, null
  br i1 %.not, label %.loopexit, label %12, !llvm.loop !25

.loopexit:                                        ; preds = %Scl_LibertyCompare.exit.thread, %Scl_LibertyItem.exit12, %2, %Scl_LibertyItem.exit, %20
  %.010 = phi ptr [ %23, %20 ], [ null, %Scl_LibertyItem.exit ], [ null, %2 ], [ null, %Scl_LibertyItem.exit12 ], [ null, %Scl_LibertyCompare.exit.thread ]
  ret ptr %.010
}